target datalayout = "e-m:e-p270:32:32-p271:32:32-p272:64:64-i64:64-i128:128-f80:128-n8:16:32:64-S128"
target triple = "x86_64-pc-linux-gnu"

%struct.expert_field = type { i32, i32 }

@hf_ecmp_no_of_attributes = internal global i32 0, align 4
@hf_ecmp_file_status = internal global i32 0, align 4
@hf_ecmp_file_handle = internal global i32 0, align 4
@hf_ecmp_file_attributes = internal global i32 0, align 4
@hf_ecmp_crc = internal global i32 0, align 4
@hf_ecmp_file_integrity = internal global i32 0, align 4
@hf_ecmp_display_creation = internal global i32 0, align 4
@hf_ecmp_display_modification = internal global i32 0, align 4
@hf_ecmp_file_length = internal global i32 0, align 4
@ett_ecmp_file_info = internal global i32 0, align 4
@ett_ecmp_file_info_att = internal global i32 0, align 4
@ei_ecmp_attribute_type = internal global %struct.expert_field zeroinitializer, align 4
@.str.644 = private unnamed_addr constant [21 x i8] c"Requested Attributes\00", align 1
@.str.645 = private unnamed_addr constant [20 x i8] c"Received Attributes\00", align 1
@get_file_attribute.fields = internal constant [7 x ptr] [ptr @hf_ecmp_display_attr_read_only, ptr @hf_ecmp_display_attr_hidden, ptr @hf_ecmp_display_attr_system, ptr @hf_ecmp_display_attr_volume_label, ptr @hf_ecmp_display_attr_subdirectory, ptr @hf_ecmp_display_attr_archive, ptr null], align 16

; Function Attrs: null_pointer_is_valid sspstrong uwtable
define internal i32 @get_file_attribute(ptr noundef %0, i32 noundef %1, ptr noundef %2, ptr noundef %3) #0 {
  %5 = alloca ptr, align 8
  %6 = alloca i32, align 4
  %7 = alloca ptr, align 8
  %8 = alloca ptr, align 8
  %9 = alloca ptr, align 8
  %10 = alloca ptr, align 8
  %11 = alloca i32, align 4
  %12 = alloca i32, align 4
  store ptr %0, ptr %5, align 8
  store i32 %1, ptr %6, align 4
  store ptr %2, ptr %7, align 8
  store ptr %3, ptr %8, align 8
  call void @llvm.lifetime.start.p0(i64 8, ptr %9) #3
  call void @llvm.lifetime.start.p0(i64 8, ptr %10) #3
  call void @llvm.lifetime.start.p0(i64 4, ptr %11) #3
  call void @llvm.lifetime.start.p0(i64 4, ptr %12) #3
  %13 = load i32, ptr %6, align 4
  store i32 %13, ptr %12, align 4
  %14 = load ptr, ptr %8, align 8
  %15 = load i32, ptr @hf_ecmp_file_attributes, align 4
  %16 = load ptr, ptr %7, align 8
  %17 = load i32, ptr %6, align 4
  %18 = call ptr @proto_tree_add_item_ret_uint(ptr noundef %14, i32 noundef %15, ptr noundef %16, i32 noundef %17, i32 noundef 1, i32 noundef 0, ptr noundef %11)
  store ptr %18, ptr %9, align 8
  %19 = load i32, ptr %6, align 4
  %20 = add i32 %19, 1
  store i32 %20, ptr %6, align 4
  %21 = load ptr, ptr %9, align 8
  %22 = load i32, ptr @ett_ecmp_file_info_att, align 4
  %23 = call ptr @proto_item_add_subtree(ptr noundef %21, i32 noundef %22)
  store ptr %23, ptr %10, align 8
  %24 = load i32, ptr %11, align 4
  switch i32 %24, label %71 [
    i32 0, label %25
    i32 1, label %33
    i32 2, label %41
    i32 3, label %49
    i32 4, label %55
    i32 5, label %63
  ]

25:                                               ; preds = %4
  %26 = load ptr, ptr %10, align 8
  %27 = load i32, ptr @hf_ecmp_file_length, align 4
  %28 = load ptr, ptr %7, align 8
  %29 = load i32, ptr %6, align 4
  %30 = call ptr @proto_tree_add_item(ptr noundef %26, i32 noundef %27, ptr noundef %28, i32 noundef %29, i32 noundef 4, i32 noundef 0)
  %31 = load i32, ptr %6, align 4
  %32 = add i32 %31, 4
  store i32 %32, ptr %6, align 4
  br label %79

33:                                               ; preds = %4
  %34 = load ptr, ptr %10, align 8
  %35 = load i32, ptr @hf_ecmp_file_integrity, align 4
  %36 = load ptr, ptr %7, align 8
  %37 = load i32, ptr %6, align 4
  %38 = call ptr @proto_tree_add_item(ptr noundef %34, i32 noundef %35, ptr noundef %36, i32 noundef %37, i32 noundef 1, i32 noundef 0)
  %39 = load i32, ptr %6, align 4
  %40 = add i32 %39, 1
  store i32 %40, ptr %6, align 4
  br label %79

41:                                               ; preds = %4
  %42 = load ptr, ptr %10, align 8
  %43 = load i32, ptr @hf_ecmp_crc, align 4
  %44 = load ptr, ptr %7, align 8
  %45 = load i32, ptr %6, align 4
  %46 = call ptr @proto_tree_add_item(ptr noundef %42, i32 noundef %43, ptr noundef %44, i32 noundef %45, i32 noundef 4, i32 noundef 0)
  %47 = load i32, ptr %6, align 4
  %48 = add i32 %47, 4
  store i32 %48, ptr %6, align 4
  br label %79

49:                                               ; preds = %4
  %50 = load ptr, ptr %10, align 8
  %51 = load ptr, ptr %7, align 8
  %52 = load i32, ptr %6, align 4
  call void @proto_tree_add_bitmask_list(ptr noundef %50, ptr noundef %51, i32 noundef %52, i32 noundef 1, ptr noundef @get_file_attribute.fields, i32 noundef 0)
  %53 = load i32, ptr %6, align 4
  %54 = add i32 %53, 1
  store i32 %54, ptr %6, align 4
  br label %79

55:                                               ; preds = %4
  %56 = load ptr, ptr %10, align 8
  %57 = load i32, ptr @hf_ecmp_display_creation, align 4
  %58 = load ptr, ptr %7, align 8
  %59 = load i32, ptr %6, align 4
  %60 = call ptr @proto_tree_add_item(ptr noundef %56, i32 noundef %57, ptr noundef %58, i32 noundef %59, i32 noundef 4, i32 noundef 18)
  %61 = load i32, ptr %6, align 4
  %62 = add i32 %61, 4
  store i32 %62, ptr %6, align 4
  br label %79

63:                                               ; preds = %4
  %64 = load ptr, ptr %10, align 8
  %65 = load i32, ptr @hf_ecmp_display_modification, align 4
  %66 = load ptr, ptr %7, align 8
  %67 = load i32, ptr %6, align 4
  %68 = call ptr @proto_tree_add_item(ptr noundef %64, i32 noundef %65, ptr noundef %66, i32 noundef %67, i32 noundef 4, i32 noundef 18)
  %69 = load i32, ptr %6, align 4
  %70 = add i32 %69, 4
  store i32 %70, ptr %6, align 4
  br label %79

71:                                               ; preds = %4
  %72 = load ptr, ptr %10, align 8
  %73 = load ptr, ptr %5, align 8
  %74 = load ptr, ptr %7, align 8
  %75 = load i32, ptr %6, align 4
  %76 = call ptr @proto_tree_add_expert(ptr noundef %72, ptr noundef %73, ptr noundef @ei_ecmp_attribute_type, ptr noundef %74, i32 noundef %75, i32 noundef 1)
  %77 = load i32, ptr %6, align 4
  %78 = add i32 %77, 1
  store i32 %78, ptr %6, align 4
  br label %79

79:                                               ; preds = %71, %63, %55, %49, %41, %33, %25
  %80 = load ptr, ptr %9, align 8
  %81 = load i32, ptr %6, align 4
  %82 = load i32, ptr %12, align 4
  %83 = sub i32 %81, %82
  call void @proto_item_set_len(ptr noundef %80, i32 noundef %83)
  %84 = load i32, ptr %6, align 4
  call void @llvm.lifetime.end.p0(i64 4, ptr %12) #3
  call void @llvm.lifetime.end.p0(i64 4, ptr %11) #3
  call void @llvm.lifetime.end.p0(i64 8, ptr %10) #3
  call void @llvm.lifetime.end.p0(i64 8, ptr %9) #3
  ret i32 %84
}

; Function Attrs: null_pointer_is_valid sspstrong uwtable
define internal void @file_info(ptr noundef %0, i32 noundef %1, i1 noundef zeroext %2, ptr noundef %3, ptr noundef %4) #0 {
  %6 = alloca ptr, align 8
  %7 = alloca i32, align 4
  %8 = alloca i8, align 1
  %9 = alloca ptr, align 8
  %10 = alloca ptr, align 8
  %11 = alloca ptr, align 8
  %12 = alloca i32, align 4
  %13 = alloca i32, align 4
  %14 = alloca i32, align 4
  store ptr %0, ptr %6, align 8
  store i32 %1, ptr %7, align 4
  %15 = zext i1 %2 to i8
  store i8 %15, ptr %8, align 1
  store ptr %3, ptr %9, align 8
  store ptr %4, ptr %10, align 8
  call void @llvm.lifetime.start.p0(i64 8, ptr %11) #3
  call void @llvm.lifetime.start.p0(i64 4, ptr %12) #3
  call void @llvm.lifetime.start.p0(i64 4, ptr %13) #3
  call void @llvm.lifetime.start.p0(i64 4, ptr %14) #3
  %16 = load i8, ptr %8, align 1, !range !6, !noundef !7
  %17 = trunc i8 %16 to i1
  br i1 %17, label %18, label %59

18:                                               ; preds = %5
  %19 = load ptr, ptr %10, align 8
  %20 = load i32, ptr @hf_ecmp_file_handle, align 4
  %21 = load ptr, ptr %9, align 8
  %22 = load i32, ptr %7, align 4
  %23 = call ptr @proto_tree_add_item(ptr noundef %19, i32 noundef %20, ptr noundef %21, i32 noundef %22, i32 noundef 2, i32 noundef 0)
  %24 = load i32, ptr %7, align 4
  %25 = add i32 %24, 2
  store i32 %25, ptr %7, align 4
  %26 = load i32, ptr %7, align 4
  store i32 %26, ptr %14, align 4
  %27 = load ptr, ptr %10, align 8
  %28 = load ptr, ptr %9, align 8
  %29 = load i32, ptr %7, align 4
  %30 = load i32, ptr @ett_ecmp_file_info, align 4
  %31 = call ptr @proto_tree_add_subtree(ptr noundef %27, ptr noundef %28, i32 noundef %29, i32 noundef -1, i32 noundef %30, ptr noundef null, ptr noundef @.str.644)
  store ptr %31, ptr %11, align 8
  %32 = load ptr, ptr %11, align 8
  %33 = load i32, ptr @hf_ecmp_no_of_attributes, align 4
  %34 = load ptr, ptr %9, align 8
  %35 = load i32, ptr %7, align 4
  %36 = call ptr @proto_tree_add_item_ret_uint(ptr noundef %32, i32 noundef %33, ptr noundef %34, i32 noundef %35, i32 noundef 1, i32 noundef 0, ptr noundef %13)
  %37 = load i32, ptr %7, align 4
  %38 = add i32 %37, 1
  store i32 %38, ptr %7, align 4
  store i32 0, ptr %12, align 4
  br label %39

39:                                               ; preds = %51, %18
  %40 = load i32, ptr %12, align 4
  %41 = load i32, ptr %13, align 4
  %42 = icmp ult i32 %40, %41
  br i1 %42, label %43, label %54

43:                                               ; preds = %39
  %44 = load ptr, ptr %11, align 8
  %45 = load i32, ptr @hf_ecmp_file_attributes, align 4
  %46 = load ptr, ptr %9, align 8
  %47 = load i32, ptr %7, align 4
  %48 = call ptr @proto_tree_add_item(ptr noundef %44, i32 noundef %45, ptr noundef %46, i32 noundef %47, i32 noundef 1, i32 noundef 0)
  %49 = load i32, ptr %7, align 4
  %50 = add i32 %49, 1
  store i32 %50, ptr %7, align 4
  br label %51

51:                                               ; preds = %43
  %52 = load i32, ptr %12, align 4
  %53 = add i32 %52, 1
  store i32 %53, ptr %12, align 4
  br label %39, !llvm.loop !15

54:                                               ; preds = %39
  %55 = load ptr, ptr %11, align 8
  %56 = load i32, ptr %7, align 4
  %57 = load i32, ptr %14, align 4
  %58 = sub i32 %56, %57
  call void @proto_item_set_len(ptr noundef %55, i32 noundef %58)
  br label %98

59:                                               ; preds = %5
  %60 = load ptr, ptr %10, align 8
  %61 = load i32, ptr @hf_ecmp_file_status, align 4
  %62 = load ptr, ptr %9, align 8
  %63 = load i32, ptr %7, align 4
  %64 = call ptr @proto_tree_add_item(ptr noundef %60, i32 noundef %61, ptr noundef %62, i32 noundef %63, i32 noundef 1, i32 noundef 0)
  %65 = load i32, ptr %7, align 4
  %66 = add i32 %65, 1
  store i32 %66, ptr %7, align 4
  %67 = load i32, ptr %7, align 4
  store i32 %67, ptr %14, align 4
  %68 = load ptr, ptr %10, align 8
  %69 = load ptr, ptr %9, align 8
  %70 = load i32, ptr %7, align 4
  %71 = load i32, ptr @ett_ecmp_file_info, align 4
  %72 = call ptr @proto_tree_add_subtree(ptr noundef %68, ptr noundef %69, i32 noundef %70, i32 noundef -1, i32 noundef %71, ptr noundef null, ptr noundef @.str.645)
  store ptr %72, ptr %11, align 8
  %73 = load ptr, ptr %11, align 8
  %74 = load i32, ptr @hf_ecmp_no_of_attributes, align 4
  %75 = load ptr, ptr %9, align 8
  %76 = load i32, ptr %7, align 4
  %77 = call ptr @proto_tree_add_item_ret_uint(ptr noundef %73, i32 noundef %74, ptr noundef %75, i32 noundef %76, i32 noundef 1, i32 noundef 0, ptr noundef %13)
  %78 = load i32, ptr %7, align 4
  %79 = add i32 %78, 1
  store i32 %79, ptr %7, align 4
  store i32 0, ptr %12, align 4
  br label %80

80:                                               ; preds = %90, %59
  %81 = load i32, ptr %12, align 4
  %82 = load i32, ptr %13, align 4
  %83 = icmp ult i32 %81, %82
  br i1 %83, label %84, label %93

84:                                               ; preds = %80
  %85 = load ptr, ptr %6, align 8
  %86 = load i32, ptr %7, align 4
  %87 = load ptr, ptr %9, align 8
  %88 = load ptr, ptr %11, align 8
  %89 = call i32 @get_file_attribute(ptr noundef %85, i32 noundef %86, ptr noundef %87, ptr noundef %88)
  store i32 %89, ptr %7, align 4
  br label %90

90:                                               ; preds = %84
  %91 = load i32, ptr %12, align 4
  %92 = add i32 %91, 1
  store i32 %92, ptr %12, align 4
  br label %80, !llvm.loop !16

93:                                               ; preds = %80
  %94 = load ptr, ptr %11, align 8
  %95 = load i32, ptr %7, align 4
  %96 = load i32, ptr %14, align 4
  %97 = sub i32 %95, %96
  call void @proto_item_set_len(ptr noundef %94, i32 noundef %97)
  br label %98

98:                                               ; preds = %93, %54
  call void @llvm.lifetime.end.p0(i64 4, ptr %14) #3
  call void @llvm.lifetime.end.p0(i64 4, ptr %13) #3
  call void @llvm.lifetime.end.p0(i64 4, ptr %12) #3
  call void @llvm.lifetime.end.p0(i64 8, ptr %11) #3
  ret void
}