; Function Attrs: null_pointer_is_valid sspstrong uwtable
define internal fastcc void @file_info(ptr noundef %0, i32 noundef %1, i1 noundef zeroext %2, ptr noundef %3, ptr noundef %4) unnamed_addr #0 {
  %6 = alloca i32, align 4
  %7 = alloca i32, align 4
  call void @llvm.lifetime.start.p0(i64 4, ptr nonnull %7) #3
  br i1 %2, label %8, label %25

8:                                                ; preds = %5
  %9 = load i32, ptr @hf_ecmp_file_handle, align 4
  %10 = tail call ptr @proto_tree_add_item(ptr noundef %4, i32 noundef %9, ptr noundef %3, i32 noundef %1, i32 noundef 2, i32 noundef 0)
  %11 = add i32 %1, 2
  %12 = load i32, ptr @ett_ecmp_file_info, align 4
  %13 = tail call ptr @proto_tree_add_subtree(ptr noundef %4, ptr noundef %3, i32 noundef %11, i32 noundef -1, i32 noundef %12, ptr noundef null, ptr noundef nonnull @.str.644)
  %14 = load i32, ptr @hf_ecmp_no_of_attributes, align 4
  %15 = call ptr @proto_tree_add_item_ret_uint(ptr noundef %13, i32 noundef %14, ptr noundef %3, i32 noundef %11, i32 noundef 1, i32 noundef 0, ptr noundef nonnull %7)
  %16 = add i32 %1, 3
  %17 = load i32, ptr %7, align 4
  %.not52 = icmp eq i32 %17, 0
  br i1 %.not52, label %._crit_edge50, label %.lr.ph49

.lr.ph49:                                         ; preds = %8, %.lr.ph49
  %.047 = phi i32 [ %21, %.lr.ph49 ], [ 0, %8 ]
  %.04246 = phi i32 [ %20, %.lr.ph49 ], [ %16, %8 ]
  %18 = load i32, ptr @hf_ecmp_file_attributes, align 4
  %19 = call ptr @proto_tree_add_item(ptr noundef %13, i32 noundef %18, ptr noundef %3, i32 noundef %.04246, i32 noundef 1, i32 noundef 0)
  %20 = add i32 %.04246, 1
  %21 = add nuw i32 %.047, 1
  %22 = load i32, ptr %7, align 4
  %23 = icmp ult i32 %21, %22
  br i1 %23, label %.lr.ph49, label %._crit_edge50, !llvm.loop !13

._crit_edge50:                                    ; preds = %.lr.ph49, %8
  %.042.lcssa = phi i32 [ %16, %8 ], [ %20, %.lr.ph49 ]
  %24 = sub i32 %.042.lcssa, %11
  call void @proto_item_set_len(ptr noundef %13, i32 noundef %24)
  br label %64

25:                                               ; preds = %5
  %26 = load i32, ptr @hf_ecmp_file_status, align 4
  %27 = tail call ptr @proto_tree_add_item(ptr noundef %4, i32 noundef %26, ptr noundef %3, i32 noundef %1, i32 noundef 1, i32 noundef 0)
  %28 = add i32 %1, 1
  %29 = load i32, ptr @ett_ecmp_file_info, align 4
  %30 = tail call ptr @proto_tree_add_subtree(ptr noundef %4, ptr noundef %3, i32 noundef %28, i32 noundef -1, i32 noundef %29, ptr noundef null, ptr noundef nonnull @.str.645)
  %31 = load i32, ptr @hf_ecmp_no_of_attributes, align 4
  %32 = call ptr @proto_tree_add_item_ret_uint(ptr noundef %30, i32 noundef %31, ptr noundef %3, i32 noundef %28, i32 noundef 1, i32 noundef 0, ptr noundef nonnull %7)
  %33 = add i32 %1, 2
  %34 = load i32, ptr %7, align 4
  %.not = icmp eq i32 %34, 0
  br i1 %.not, label %._crit_edge, label %.lr.ph

.lr.ph:                                           ; preds = %25, %get_file_attribute.exit
  %.145 = phi i32 [ %60, %get_file_attribute.exit ], [ 0, %25 ]
  %.14344 = phi i32 [ %59, %get_file_attribute.exit ], [ %33, %25 ]
  call void @llvm.lifetime.start.p0(i64 4, ptr nonnull %6) #3
  %35 = load i32, ptr @hf_ecmp_file_attributes, align 4
  %36 = call ptr @proto_tree_add_item_ret_uint(ptr noundef %30, i32 noundef %35, ptr noundef %3, i32 noundef %.14344, i32 noundef 1, i32 noundef 0, ptr noundef nonnull %6)
  %37 = add i32 %.14344, 1
  %38 = load i32, ptr @ett_ecmp_file_info_att, align 4
  %39 = call ptr @proto_item_add_subtree(ptr noundef %36, i32 noundef %38)
  %40 = load i32, ptr %6, align 4
  switch i32 %40, label %57 [
    i32 0, label %41
    i32 1, label %44
    i32 2, label %47
    i32 3, label %50
    i32 4, label %51
    i32 5, label %54
  ]

41:                                               ; preds = %.lr.ph
  %42 = load i32, ptr @hf_ecmp_file_length, align 4
  %43 = call ptr @proto_tree_add_item(ptr noundef %39, i32 noundef %42, ptr noundef %3, i32 noundef %37, i32 noundef 4, i32 noundef 0)
  br label %get_file_attribute.exit

44:                                               ; preds = %.lr.ph
  %45 = load i32, ptr @hf_ecmp_file_integrity, align 4
  %46 = call ptr @proto_tree_add_item(ptr noundef %39, i32 noundef %45, ptr noundef %3, i32 noundef %37, i32 noundef 1, i32 noundef 0)
  br label %get_file_attribute.exit

47:                                               ; preds = %.lr.ph
  %48 = load i32, ptr @hf_ecmp_crc, align 4
  %49 = call ptr @proto_tree_add_item(ptr noundef %39, i32 noundef %48, ptr noundef %3, i32 noundef %37, i32 noundef 4, i32 noundef 0)
  br label %get_file_attribute.exit

50:                                               ; preds = %.lr.ph
  call void @proto_tree_add_bitmask_list(ptr noundef %39, ptr noundef %3, i32 noundef %37, i32 noundef 1, ptr noundef nonnull @get_file_attribute.fields, i32 noundef 0)
  br label %get_file_attribute.exit

51:                                               ; preds = %.lr.ph
  %52 = load i32, ptr @hf_ecmp_display_creation, align 4
  %53 = call ptr @proto_tree_add_item(ptr noundef %39, i32 noundef %52, ptr noundef %3, i32 noundef %37, i32 noundef 4, i32 noundef 18)
  br label %get_file_attribute.exit

54:                                               ; preds = %.lr.ph
  %55 = load i32, ptr @hf_ecmp_display_modification, align 4
  %56 = call ptr @proto_tree_add_item(ptr noundef %39, i32 noundef %55, ptr noundef %3, i32 noundef %37, i32 noundef 4, i32 noundef 18)
  br label %get_file_attribute.exit

57:                                               ; preds = %.lr.ph
  %58 = call ptr @proto_tree_add_expert(ptr noundef %39, ptr noundef %0, ptr noundef nonnull @ei_ecmp_attribute_type, ptr noundef %3, i32 noundef %37, i32 noundef 1)
  br label %get_file_attribute.exit

get_file_attribute.exit:                          ; preds = %41, %44, %47, %50, %51, %54, %57
  %.sink.i = phi i32 [ 2, %57 ], [ 5, %54 ], [ 5, %51 ], [ 2, %50 ], [ 5, %47 ], [ 2, %44 ], [ 5, %41 ]
  %59 = add i32 %.sink.i, %.14344
  call void @proto_item_set_len(ptr noundef %36, i32 noundef %.sink.i)
  call void @llvm.lifetime.end.p0(i64 4, ptr nonnull %6) #3
  %60 = add nuw i32 %.145, 1
  %61 = load i32, ptr %7, align 4
  %62 = icmp ult i32 %60, %61
  br i1 %62, label %.lr.ph, label %._crit_edge, !llvm.loop !14

._crit_edge:                                      ; preds = %get_file_attribute.exit, %25
  %.143.lcssa = phi i32 [ %33, %25 ], [ %59, %get_file_attribute.exit ]
  %63 = sub i32 %.143.lcssa, %28
  call void @proto_item_set_len(ptr noundef %30, i32 noundef %63)
  br label %64

64:                                               ; preds = %._crit_edge, %._crit_edge50
  call void @llvm.lifetime.end.p0(i64 4, ptr nonnull %7) #3
  ret void
}